
build/compiled:     file format elf64-x86-64

SYMBOL TABLE:
0000000000000000 l    df *ABS*	0000000000000000              Scrt1.o
000000000000038c l     O .note.ABI-tag	0000000000000020              __abi_tag
0000000000000000 l    df *ABS*	0000000000000000              crtstuff.c
00000000000010b0 l     F .text	0000000000000000              deregister_tm_clones
00000000000010e0 l     F .text	0000000000000000              register_tm_clones
0000000000001120 l     F .text	0000000000000000              __do_global_dtors_aux
0000000000004010 l     O .bss	0000000000000001              completed.0
0000000000003db8 l     O .fini_array	0000000000000000              __do_global_dtors_aux_fini_array_entry
0000000000001160 l     F .text	0000000000000000              frame_dummy
0000000000003db0 l     O .init_array	0000000000000000              __frame_dummy_init_array_entry
0000000000000000 l    df *ABS*	0000000000000000              main.c
0000000000000000 l    df *ABS*	0000000000000000              crtstuff.c
00000000000020e0 l     O .eh_frame	0000000000000000              __FRAME_END__
0000000000000000 l    df *ABS*	0000000000000000              
0000000000003dc0 l     O .dynamic	0000000000000000              _DYNAMIC
0000000000002004 l       .eh_frame_hdr	0000000000000000              __GNU_EH_FRAME_HDR
0000000000003fb0 l     O .got	0000000000000000              _GLOBAL_OFFSET_TABLE_
0000000000000000       F *UND*	0000000000000000              __libc_start_main@GLIBC_2.34
0000000000000000  w      *UND*	0000000000000000              _ITM_deregisterTMCloneTable
0000000000004000  w      .data	0000000000000000              data_start
0000000000004010 g       .data	0000000000000000              _edata
00000000000011d4 g     F .fini	0000000000000000              .hidden _fini
0000000000000000       F *UND*	0000000000000000              __stack_chk_fail@GLIBC_2.4
0000000000004000 g       .data	0000000000000000              __data_start
0000000000000000  w      *UND*	0000000000000000              __gmon_start__
0000000000004008 g     O .data	0000000000000000              .hidden __dso_handle
0000000000002000 g     O .rodata	0000000000000004              _IO_stdin_used
0000000000004018 g       .bss	0000000000000000              _end
0000000000001080 g     F .text	0000000000000026              _start
0000000000004010 g       .bss	0000000000000000              __bss_start
0000000000001169 g     F .text	0000000000000068              main
0000000000000000       F *UND*	0000000000000000              strcat@GLIBC_2.2.5
0000000000004010 g     O .data	0000000000000000              .hidden __TMC_END__
0000000000000000  w      *UND*	0000000000000000              _ITM_registerTMCloneTable
0000000000000000  w    F *UND*	0000000000000000              __cxa_finalize@GLIBC_2.2.5
0000000000001000 g     F .init	0000000000000000              .hidden _init


Contents of section .interp:
 0318 2f6c6962 36342f6c 642d6c69 6e75782d  /lib64/ld-linux-
 0328 7838362d 36342e73 6f2e3200           x86-64.so.2.    
Contents of section .note.gnu.property:
 0338 04000000 20000000 05000000 474e5500  .... .......GNU.
 0348 020000c0 04000000 03000000 00000000  ................
 0358 028000c0 04000000 01000000 00000000  ................
Contents of section .note.gnu.build-id:
 0368 04000000 14000000 03000000 474e5500  ............GNU.
 0378 eb6a8d94 c8839d47 732dfa33 e81ceb79  .j.....Gs-.3...y
 0388 4b442877                             KD(w            
Contents of section .note.ABI-tag:
 038c 04000000 10000000 01000000 474e5500  ............GNU.
 039c 00000000 03000000 02000000 00000000  ................
Contents of section .gnu.hash:
 03b0 02000000 07000000 01000000 06000000  ................
 03c0 00008100 00000000 07000000 00000000  ................
 03d0 d165ce6d                             .e.m            
Contents of section .dynsym:
 03d8 00000000 00000000 00000000 00000000  ................
 03e8 00000000 00000000 10000000 12000000  ................
 03f8 00000000 00000000 00000000 00000000  ................
 0408 65000000 20000000 00000000 00000000  e... ...........
 0418 00000000 00000000 29000000 12000000  ........).......
 0428 00000000 00000000 00000000 00000000  ................
 0438 81000000 20000000 00000000 00000000  .... ...........
 0448 00000000 00000000 22000000 12000000  ........".......
 0458 00000000 00000000 00000000 00000000  ................
 0468 90000000 20000000 00000000 00000000  .... ...........
 0478 00000000 00000000 01000000 22000000  ............"...
 0488 00000000 00000000 00000000 00000000  ................
Contents of section .dynstr:
 0498 005f5f63 78615f66 696e616c 697a6500  .__cxa_finalize.
 04a8 5f5f6c69 62635f73 74617274 5f6d6169  __libc_start_mai
 04b8 6e007374 72636174 005f5f73 7461636b  n.strcat.__stack
 04c8 5f63686b 5f666169 6c006c69 62632e73  _chk_fail.libc.s
 04d8 6f2e3600 474c4942 435f322e 322e3500  o.6.GLIBC_2.2.5.
 04e8 474c4942 435f322e 3400474c 4942435f  GLIBC_2.4.GLIBC_
 04f8 322e3334 005f4954 4d5f6465 72656769  2.34._ITM_deregi
 0508 73746572 544d436c 6f6e6554 61626c65  sterTMCloneTable
 0518 005f5f67 6d6f6e5f 73746172 745f5f00  .__gmon_start__.
 0528 5f49544d 5f726567 69737465 72544d43  _ITM_registerTMC
 0538 6c6f6e65 5461626c 6500               loneTable.      
Contents of section .gnu.version:
 0542 00000200 01000300 01000400 01000400  ................
Contents of section .gnu.version_r:
 0558 01000300 3a000000 10000000 00000000  ....:...........
 0568 751a6909 00000400 44000000 10000000  u.i.....D.......
 0578 1469690d 00000300 50000000 10000000  .ii.....P.......
 0588 b4919606 00000200 5a000000 00000000  ........Z.......
Contents of section .rela.dyn:
 0598 b03d0000 00000000 08000000 00000000  .=..............
 05a8 60110000 00000000 b83d0000 00000000  `........=......
 05b8 08000000 00000000 20110000 00000000  ........ .......
 05c8 08400000 00000000 08000000 00000000  .@..............
 05d8 08400000 00000000 d83f0000 00000000  .@.......?......
 05e8 06000000 01000000 00000000 00000000  ................
 05f8 e03f0000 00000000 06000000 02000000  .?..............
 0608 00000000 00000000 e83f0000 00000000  .........?......
 0618 06000000 04000000 00000000 00000000  ................
 0628 f03f0000 00000000 06000000 06000000  .?..............
 0638 00000000 00000000 f83f0000 00000000  .........?......
 0648 06000000 07000000 00000000 00000000  ................
Contents of section .rela.plt:
 0658 c83f0000 00000000 07000000 03000000  .?..............
 0668 00000000 00000000 d03f0000 00000000  .........?......
 0678 07000000 05000000 00000000 00000000  ................
Contents of section .init:
 1000 f30f1efa 4883ec08 488b05d9 2f000048  ....H...H.../..H
 1010 85c07402 ffd04883 c408c3             ..t...H....     
Contents of section .plt:
 1020 ff35922f 0000ff25 942f0000 0f1f4000  .5./...%./....@.
 1030 f30f1efa 68000000 00e9e2ff ffff6690  ....h.........f.
 1040 f30f1efa 68010000 00e9d2ff ffff6690  ....h.........f.
Contents of section .plt.got:
 1050 f30f1efa ff259e2f 0000660f 1f440000  .....%./..f..D..
Contents of section .plt.sec:
 1060 f30f1efa ff255e2f 0000660f 1f440000  .....%^/..f..D..
 1070 f30f1efa ff25562f 0000660f 1f440000  .....%V/..f..D..
Contents of section .text:
 1080 f30f1efa 31ed4989 d15e4889 e24883e4  ....1.I..^H..H..
 1090 f0505445 31c031c9 488d3dca 000000ff  .PTE1.1.H.=.....
 10a0 15332f00 00f4662e 0f1f8400 00000000  .3/...f.........
 10b0 488d3d59 2f000048 8d05522f 00004839  H.=Y/..H..R/..H9
 10c0 f8741548 8b05162f 00004885 c07409ff  .t.H.../..H..t..
 10d0 e00f1f80 00000000 c30f1f80 00000000  ................
 10e0 488d3d29 2f000048 8d35222f 00004829  H.=)/..H.5"/..H)
 10f0 fe4889f0 48c1ee3f 48c1f803 4801c648  .H..H..?H...H..H
 1100 d1fe7414 488b05e5 2e000048 85c07408  ..t.H......H..t.
 1110 ffe0660f 1f440000 c30f1f80 00000000  ..f..D..........
 1120 f30f1efa 803de52e 00000075 2b554883  .....=.....u+UH.
 1130 3dc22e00 00004889 e5740c48 8b3dc62e  =.....H..t.H.=..
 1140 0000e809 ffffffe8 64ffffff c605bd2e  ........d.......
 1150 0000015d c30f1f00 c30f1f80 00000000  ...]............
 1160 f30f1efa e977ffff fff30f1e fa554889  .....w.......UH.
 1170 e54883ec 2064488b 04252800 00004889  .H.. dH..%(...H.
 1180 45f831c0 48b84865 6c6c6f00 00004889  E.1.H.Hello...H.
 1190 45ee66c7 45f60000 c745e957 6f726cc6  E.f.E....E.Worl.
 11a0 45ed6448 8d55e948 8d45ee48 89d64889  E.dH.U.H.E.H..H.
 11b0 c7e8bafe ffffb800 00000048 8b55f864  ...........H.U.d
 11c0 482b1425 28000000 7405e891 feffffc9  H+.%(...t.......
 11d0 c3                                   .               
Contents of section .fini:
 11d4 f30f1efa 4883ec08 4883c408 c3        ....H...H....   
Contents of section .rodata:
 2000 01000200                             ....            
Contents of section .eh_frame_hdr:
 2004 011b033b 30000000 05000000 1cf0ffff  ...;0...........
 2014 64000000 4cf0ffff 8c000000 5cf0ffff  d...L.......\...
 2024 a4000000 7cf0ffff 4c000000 65f1ffff  ....|...L...e...
 2034 bc000000                             ....            
Contents of section .eh_frame:
 2038 14000000 00000000 017a5200 01781001  .........zR..x..
 2048 1b0c0708 90010000 14000000 1c000000  ................
 2058 28f0ffff 26000000 00440710 00000000  (...&....D......
 2068 24000000 34000000 b0efffff 30000000  $...4.......0...
 2078 000e1046 0e184a0f 0b770880 003f1a39  ...F..J..w...?.9
 2088 2a332422 00000000 14000000 5c000000  *3$"........\...
 2098 b8efffff 10000000 00000000 00000000  ................
 20a8 14000000 74000000 b0efffff 20000000  ....t....... ...
 20b8 00000000 00000000 1c000000 8c000000  ................
 20c8 a1f0ffff 68000000 00450e10 8602430d  ....h....E....C.
 20d8 06025f0c 07080000 00000000           .._.........    
Contents of section .init_array:
 3db0 60110000 00000000                    `.......        
Contents of section .fini_array:
 3db8 20110000 00000000                     .......        
Contents of section .dynamic:
 3dc0 01000000 00000000 3a000000 00000000  ........:.......
 3dd0 0c000000 00000000 00100000 00000000  ................
 3de0 0d000000 00000000 d4110000 00000000  ................
 3df0 19000000 00000000 b03d0000 00000000  .........=......
 3e00 1b000000 00000000 08000000 00000000  ................
 3e10 1a000000 00000000 b83d0000 00000000  .........=......
 3e20 1c000000 00000000 08000000 00000000  ................
 3e30 f5feff6f 00000000 b0030000 00000000  ...o............
 3e40 05000000 00000000 98040000 00000000  ................
 3e50 06000000 00000000 d8030000 00000000  ................
 3e60 0a000000 00000000 aa000000 00000000  ................
 3e70 0b000000 00000000 18000000 00000000  ................
 3e80 15000000 00000000 00000000 00000000  ................
 3e90 03000000 00000000 b03f0000 00000000  .........?......
 3ea0 02000000 00000000 30000000 00000000  ........0.......
 3eb0 14000000 00000000 07000000 00000000  ................
 3ec0 17000000 00000000 58060000 00000000  ........X.......
 3ed0 07000000 00000000 98050000 00000000  ................
 3ee0 08000000 00000000 c0000000 00000000  ................
 3ef0 09000000 00000000 18000000 00000000  ................
 3f00 1e000000 00000000 08000000 00000000  ................
 3f10 fbffff6f 00000000 01000008 00000000  ...o............
 3f20 feffff6f 00000000 58050000 00000000  ...o....X.......
 3f30 ffffff6f 00000000 01000000 00000000  ...o............
 3f40 f0ffff6f 00000000 42050000 00000000  ...o....B.......
 3f50 f9ffff6f 00000000 03000000 00000000  ...o............
 3f60 00000000 00000000 00000000 00000000  ................
 3f70 00000000 00000000 00000000 00000000  ................
 3f80 00000000 00000000 00000000 00000000  ................
 3f90 00000000 00000000 00000000 00000000  ................
 3fa0 00000000 00000000 00000000 00000000  ................
Contents of section .got:
 3fb0 c03d0000 00000000 00000000 00000000  .=..............
 3fc0 00000000 00000000 30100000 00000000  ........0.......
 3fd0 40100000 00000000 00000000 00000000  @...............
 3fe0 00000000 00000000 00000000 00000000  ................
 3ff0 00000000 00000000 00000000 00000000  ................
Contents of section .data:
 4000 00000000 00000000 08400000 00000000  .........@......
Contents of section .comment:
 0000 4743433a 20285562 756e7475 2031332e  GCC: (Ubuntu 13.
 0010 322e302d 34756275 6e747533 29203133  2.0-4ubuntu3) 13
 0020 2e322e30 00                          .2.0.           

Disassembly of section .init:

0000000000001000 <_init>:
    1000:	f3 0f 1e fa          	endbr64
    1004:	48 83 ec 08          	sub    $0x8,%rsp
    1008:	48 8b 05 d9 2f 00 00 	mov    0x2fd9(%rip),%rax        # 3fe8 <__gmon_start__@Base>
    100f:	48 85 c0             	test   %rax,%rax
    1012:	74 02                	je     1016 <_init+0x16>
    1014:	ff d0                	call   *%rax
    1016:	48 83 c4 08          	add    $0x8,%rsp
    101a:	c3                   	ret

Disassembly of section .plt:

0000000000001020 <.plt>:
    1020:	ff 35 92 2f 00 00    	push   0x2f92(%rip)        # 3fb8 <_GLOBAL_OFFSET_TABLE_+0x8>
    1026:	ff 25 94 2f 00 00    	jmp    *0x2f94(%rip)        # 3fc0 <_GLOBAL_OFFSET_TABLE_+0x10>
    102c:	0f 1f 40 00          	nopl   0x0(%rax)
    1030:	f3 0f 1e fa          	endbr64
    1034:	68 00 00 00 00       	push   $0x0
    1039:	e9 e2 ff ff ff       	jmp    1020 <_init+0x20>
    103e:	66 90                	xchg   %ax,%ax
    1040:	f3 0f 1e fa          	endbr64
    1044:	68 01 00 00 00       	push   $0x1
    1049:	e9 d2 ff ff ff       	jmp    1020 <_init+0x20>
    104e:	66 90                	xchg   %ax,%ax

Disassembly of section .plt.got:

0000000000001050 <__cxa_finalize@plt>:
    1050:	f3 0f 1e fa          	endbr64
    1054:	ff 25 9e 2f 00 00    	jmp    *0x2f9e(%rip)        # 3ff8 <__cxa_finalize@GLIBC_2.2.5>
    105a:	66 0f 1f 44 00 00    	nopw   0x0(%rax,%rax,1)

Disassembly of section .plt.sec:

0000000000001060 <__stack_chk_fail@plt>:
    1060:	f3 0f 1e fa          	endbr64
    1064:	ff 25 5e 2f 00 00    	jmp    *0x2f5e(%rip)        # 3fc8 <__stack_chk_fail@GLIBC_2.4>
    106a:	66 0f 1f 44 00 00    	nopw   0x0(%rax,%rax,1)

0000000000001070 <strcat@plt>:
    1070:	f3 0f 1e fa          	endbr64
    1074:	ff 25 56 2f 00 00    	jmp    *0x2f56(%rip)        # 3fd0 <strcat@GLIBC_2.2.5>
    107a:	66 0f 1f 44 00 00    	nopw   0x0(%rax,%rax,1)

Disassembly of section .text:

0000000000001080 <_start>:
    1080:	f3 0f 1e fa          	endbr64
    1084:	31 ed                	xor    %ebp,%ebp
    1086:	49 89 d1             	mov    %rdx,%r9
    1089:	5e                   	pop    %rsi
    108a:	48 89 e2             	mov    %rsp,%rdx
    108d:	48 83 e4 f0          	and    $0xfffffffffffffff0,%rsp
    1091:	50                   	push   %rax
    1092:	54                   	push   %rsp
    1093:	45 31 c0             	xor    %r8d,%r8d
    1096:	31 c9                	xor    %ecx,%ecx
    1098:	48 8d 3d ca 00 00 00 	lea    0xca(%rip),%rdi        # 1169 <main>
    109f:	ff 15 33 2f 00 00    	call   *0x2f33(%rip)        # 3fd8 <__libc_start_main@GLIBC_2.34>
    10a5:	f4                   	hlt
    10a6:	66 2e 0f 1f 84 00 00 00 00 00 	cs nopw 0x0(%rax,%rax,1)

00000000000010b0 <deregister_tm_clones>:
    10b0:	48 8d 3d 59 2f 00 00 	lea    0x2f59(%rip),%rdi        # 4010 <__TMC_END__>
    10b7:	48 8d 05 52 2f 00 00 	lea    0x2f52(%rip),%rax        # 4010 <__TMC_END__>
    10be:	48 39 f8             	cmp    %rdi,%rax
    10c1:	74 15                	je     10d8 <deregister_tm_clones+0x28>
    10c3:	48 8b 05 16 2f 00 00 	mov    0x2f16(%rip),%rax        # 3fe0 <_ITM_deregisterTMCloneTable@Base>
    10ca:	48 85 c0             	test   %rax,%rax
    10cd:	74 09                	je     10d8 <deregister_tm_clones+0x28>
    10cf:	ff e0                	jmp    *%rax
    10d1:	0f 1f 80 00 00 00 00 	nopl   0x0(%rax)
    10d8:	c3                   	ret
    10d9:	0f 1f 80 00 00 00 00 	nopl   0x0(%rax)

00000000000010e0 <register_tm_clones>:
    10e0:	48 8d 3d 29 2f 00 00 	lea    0x2f29(%rip),%rdi        # 4010 <__TMC_END__>
    10e7:	48 8d 35 22 2f 00 00 	lea    0x2f22(%rip),%rsi        # 4010 <__TMC_END__>
    10ee:	48 29 fe             	sub    %rdi,%rsi
    10f1:	48 89 f0             	mov    %rsi,%rax
    10f4:	48 c1 ee 3f          	shr    $0x3f,%rsi
    10f8:	48 c1 f8 03          	sar    $0x3,%rax
    10fc:	48 01 c6             	add    %rax,%rsi
    10ff:	48 d1 fe             	sar    %rsi
    1102:	74 14                	je     1118 <register_tm_clones+0x38>
    1104:	48 8b 05 e5 2e 00 00 	mov    0x2ee5(%rip),%rax        # 3ff0 <_ITM_registerTMCloneTable@Base>
    110b:	48 85 c0             	test   %rax,%rax
    110e:	74 08                	je     1118 <register_tm_clones+0x38>
    1110:	ff e0                	jmp    *%rax
    1112:	66 0f 1f 44 00 00    	nopw   0x0(%rax,%rax,1)
    1118:	c3                   	ret
    1119:	0f 1f 80 00 00 00 00 	nopl   0x0(%rax)

0000000000001120 <__do_global_dtors_aux>:
    1120:	f3 0f 1e fa          	endbr64
    1124:	80 3d e5 2e 00 00 00 	cmpb   $0x0,0x2ee5(%rip)        # 4010 <__TMC_END__>
    112b:	75 2b                	jne    1158 <__do_global_dtors_aux+0x38>
    112d:	55                   	push   %rbp
    112e:	48 83 3d c2 2e 00 00 00 	cmpq   $0x0,0x2ec2(%rip)        # 3ff8 <__cxa_finalize@GLIBC_2.2.5>
    1136:	48 89 e5             	mov    %rsp,%rbp
    1139:	74 0c                	je     1147 <__do_global_dtors_aux+0x27>
    113b:	48 8b 3d c6 2e 00 00 	mov    0x2ec6(%rip),%rdi        # 4008 <__dso_handle>
    1142:	e8 09 ff ff ff       	call   1050 <__cxa_finalize@plt>
    1147:	e8 64 ff ff ff       	call   10b0 <deregister_tm_clones>
    114c:	c6 05 bd 2e 00 00 01 	movb   $0x1,0x2ebd(%rip)        # 4010 <__TMC_END__>
    1153:	5d                   	pop    %rbp
    1154:	c3                   	ret
    1155:	0f 1f 00             	nopl   (%rax)
    1158:	c3                   	ret
    1159:	0f 1f 80 00 00 00 00 	nopl   0x0(%rax)

0000000000001160 <frame_dummy>:
    1160:	f3 0f 1e fa          	endbr64
    1164:	e9 77 ff ff ff       	jmp    10e0 <register_tm_clones>

0000000000001169 <main>:
    1169:	f3 0f 1e fa          	endbr64
    116d:	55                   	push   %rbp
    116e:	48 89 e5             	mov    %rsp,%rbp
    1171:	48 83 ec 20          	sub    $0x20,%rsp
    1175:	64 48 8b 04 25 28 00 00 00 	mov    %fs:0x28,%rax
    117e:	48 89 45 f8          	mov    %rax,-0x8(%rbp)
    1182:	31 c0                	xor    %eax,%eax
    1184:	48 b8 48 65 6c 6c 6f 00 00 00 	movabs $0x6f6c6c6548,%rax
    118e:	48 89 45 ee          	mov    %rax,-0x12(%rbp)
    1192:	66 c7 45 f6 00 00    	movw   $0x0,-0xa(%rbp)
    1198:	c7 45 e9 57 6f 72 6c 	movl   $0x6c726f57,-0x17(%rbp)
    119f:	c6 45 ed 64          	movb   $0x64,-0x13(%rbp)
    11a3:	48 8d 55 e9          	lea    -0x17(%rbp),%rdx
    11a7:	48 8d 45 ee          	lea    -0x12(%rbp),%rax
    11ab:	48 89 d6             	mov    %rdx,%rsi
    11ae:	48 89 c7             	mov    %rax,%rdi
    11b1:	e8 ba fe ff ff       	call   1070 <strcat@plt>
    11b6:	b8 00 00 00 00       	mov    $0x0,%eax
    11bb:	48 8b 55 f8          	mov    -0x8(%rbp),%rdx
    11bf:	64 48 2b 14 25 28 00 00 00 	sub    %fs:0x28,%rdx
    11c8:	74 05                	je     11cf <main+0x66>
    11ca:	e8 91 fe ff ff       	call   1060 <__stack_chk_fail@plt>
    11cf:	c9                   	leave
    11d0:	c3                   	ret

Disassembly of section .fini:

00000000000011d4 <_fini>:
    11d4:	f3 0f 1e fa          	endbr64
    11d8:	48 83 ec 08          	sub    $0x8,%rsp
    11dc:	48 83 c4 08          	add    $0x8,%rsp
    11e0:	c3                   	ret
